target datalayout = "e-m:e-p270:32:32-p271:32:32-p272:64:64-i64:64-i128:128-f80:128-n8:16:32:64-S128"
target triple = "x86_64-unknown-linux-gnu"

%class.b2World = type <{ %class.b2BlockAllocator, %class.b2StackAllocator, %class.b2ContactManager, ptr, ptr, i32, i32, %struct.b2Vec2, i8, [7 x i8], ptr, ptr, float, i8, i8, i8, i8, i8, i8, i8, i8, %struct.b2Profile, [4 x i8] }>
%class.b2BlockAllocator = type { ptr, i32, i32, [14 x ptr] }
%class.b2StackAllocator = type <{ [102400 x i8], i32, i32, i32, [4 x i8], [32 x %struct.b2StackEntry], i32, [4 x i8] }>
%struct.b2StackEntry = type { ptr, i32, i8 }
%class.b2ContactManager = type { %class.b2BroadPhase, ptr, i32, ptr, ptr, ptr }
%class.b2BroadPhase = type <{ %class.b2DynamicTree, i32, [4 x i8], ptr, i32, i32, ptr, i32, i32, i32, [4 x i8] }>
%class.b2DynamicTree = type { i32, ptr, i32, i32, i32, i32 }
%struct.b2Vec2 = type { float, float }
%struct.b2Profile = type { float, float, float, float, float, float, float, float }
%struct.b2WorldQueryWrapper = type { ptr, ptr }

; Function Attrs: mustprogress uwtable
define linkonce_odr hidden void @_ZNK12b2BroadPhase5QueryI19b2WorldQueryWrapperEEvPT_RK6b2AABB(ptr noundef nonnull align 8 dereferenceable(76) %this, ptr noundef %callback, ptr noundef nonnull align 4 dereferenceable(16) %aabb) #0 comdat align 2 {
entry:
  %this.addr = alloca ptr, align 8
  %callback.addr = alloca ptr, align 8
  %aabb.addr = alloca ptr, align 8
  store ptr %this, ptr %this.addr, align 8
  store ptr %callback, ptr %callback.addr, align 8
  store ptr %aabb, ptr %aabb.addr, align 8
  %this1 = load ptr, ptr %this.addr, align 8
  %m_tree = getelementptr inbounds %class.b2BroadPhase, ptr %this1, i32 0, i32 0
  %0 = load ptr, ptr %callback.addr, align 8
  %1 = load ptr, ptr %aabb.addr, align 8
  call void @_ZNK13b2DynamicTree5QueryI19b2WorldQueryWrapperEEvPT_RK6b2AABB(ptr noundef nonnull align 8 dereferenceable(32) %m_tree, ptr noundef %0, ptr noundef nonnull align 4 dereferenceable(16) %1)
  ret void
}

; Function Attrs: mustprogress uwtable
define void @_ZNK7b2World9QueryAABBEP15b2QueryCallbackRK6b2AABB(ptr noundef nonnull align 8 dereferenceable(103284) %this, ptr noundef %callback, ptr noundef nonnull align 4 dereferenceable(16) %aabb) #0 align 2 {
entry:
  %this.addr = alloca ptr, align 8
  %callback.addr = alloca ptr, align 8
  %aabb.addr = alloca ptr, align 8
  %wrapper = alloca %struct.b2WorldQueryWrapper, align 8
  store ptr %this, ptr %this.addr, align 8
  store ptr %callback, ptr %callback.addr, align 8
  store ptr %aabb, ptr %aabb.addr, align 8
  %this1 = load ptr, ptr %this.addr, align 8
  %m_contactManager = getelementptr inbounds %class.b2World, ptr %this1, i32 0, i32 2
  %m_broadPhase = getelementptr inbounds %class.b2ContactManager, ptr %m_contactManager, i32 0, i32 0
  %broadPhase = getelementptr inbounds %struct.b2WorldQueryWrapper, ptr %wrapper, i32 0, i32 0
  store ptr %m_broadPhase, ptr %broadPhase, align 8
  %0 = load ptr, ptr %callback.addr, align 8
  %callback2 = getelementptr inbounds %struct.b2WorldQueryWrapper, ptr %wrapper, i32 0, i32 1
  store ptr %0, ptr %callback2, align 8
  %m_contactManager3 = getelementptr inbounds %class.b2World, ptr %this1, i32 0, i32 2
  %m_broadPhase4 = getelementptr inbounds %class.b2ContactManager, ptr %m_contactManager3, i32 0, i32 0
  %1 = load ptr, ptr %aabb.addr, align 8
  call void @_ZNK12b2BroadPhase5QueryI19b2WorldQueryWrapperEEvPT_RK6b2AABB(ptr noundef nonnull align 8 dereferenceable(76) %m_broadPhase4, ptr noundef %wrapper, ptr noundef nonnull align 4 dereferenceable(16) %1)
  ret void
}