; Function Attrs: mustprogress uwtable
define void @_ZNK7b2World9QueryAABBEP15b2QueryCallbackRK6b2AABB(ptr noundef nonnull align 8 dereferenceable(103284) %this, ptr noundef %callback, ptr noundef nonnull align 4 dereferenceable(16) %aabb) local_unnamed_addr #0 align 2 {
entry:
  %wrapper = alloca %struct.b2WorldQueryWrapper, align 8
  %m_contactManager = getelementptr inbounds nuw i8, ptr %this, i64 103064
  store ptr %m_contactManager, ptr %wrapper, align 8
  %callback2 = getelementptr inbounds nuw i8, ptr %wrapper, i64 8
  store ptr %callback, ptr %callback2, align 8
  call void @_ZNK13b2DynamicTree5QueryI19b2WorldQueryWrapperEEvPT_RK6b2AABB(ptr noundef nonnull align 8 dereferenceable(76) %m_contactManager, ptr noundef nonnull %wrapper, ptr noundef nonnull align 4 dereferenceable(16) %aabb)
  ret void
}